; Function Attrs: nounwind uwtable
define internal noundef i32 @lj_cf_debug_getmetatable(ptr noundef %0) #0 {
  %2 = tail call ptr @lj_lib_checkany(ptr noundef %0, i32 noundef 1) #10
  %3 = tail call i32 @lua_getmetatable(ptr noundef %0, i32 noundef 1) #10
  %.not = icmp eq i32 %3, 0
  br i1 %.not, label %4, label %8

4:                                                ; preds = %1
  %5 = getelementptr inbounds nuw i8, ptr %0, i64 40
  %6 = load ptr, ptr %5, align 8, !tbaa !4
  %7 = getelementptr inbounds i8, ptr %6, i64 -8
  store i64 -1, ptr %7, align 8, !tbaa !15
  br label %8

8:                                                ; preds = %4, %1
  ret i32 1
}